target datalayout = "e-m:e-p270:32:32-p271:32:32-p272:64:64-i64:64-i128:128-f80:128-n8:16:32:64-S128"
target triple = "x86_64-pc-linux-gnu"

%struct.expert_field = type { i32, i32 }

@hf_cip_svalidator_coordination_conn_inst_size = internal global i32 0, align 4
@hf_cip_svalidator_coordination_conn_inst_item = internal global i32 0, align 4
@ei_mal_svalidator_coordination_conn_inst = internal global %struct.expert_field zeroinitializer, align 4

; Function Attrs: null_pointer_is_valid sspstrong uwtable
define internal i32 @dissect_s_validator_coordination_conn_inst(ptr noundef %0, ptr noundef %1, ptr noundef %2, ptr noundef %3, i32 noundef %4, i32 noundef %5) #0 {
  %7 = alloca i32, align 4
  %8 = alloca ptr, align 8
  %9 = alloca ptr, align 8
  %10 = alloca ptr, align 8
  %11 = alloca ptr, align 8
  %12 = alloca i32, align 4
  %13 = alloca i32, align 4
  %14 = alloca i32, align 4
  %15 = alloca i32, align 4
  %16 = alloca i32, align 4
  store ptr %0, ptr %8, align 8
  store ptr %1, ptr %9, align 8
  store ptr %2, ptr %10, align 8
  store ptr %3, ptr %11, align 8
  store i32 %4, ptr %12, align 4
  store i32 %5, ptr %13, align 4
  call void @llvm.lifetime.start.p0(i64 4, ptr %14) #11
  call void @llvm.lifetime.start.p0(i64 4, ptr %15) #11
  %17 = load ptr, ptr %9, align 8
  %18 = load i32, ptr @hf_cip_svalidator_coordination_conn_inst_size, align 4
  %19 = load ptr, ptr %11, align 8
  %20 = load i32, ptr %12, align 4
  %21 = call ptr @proto_tree_add_item(ptr noundef %17, i32 noundef %18, ptr noundef %19, i32 noundef %20, i32 noundef 1, i32 noundef -2147483648)
  %22 = load ptr, ptr %11, align 8
  %23 = load i32, ptr %12, align 4
  %24 = call zeroext i8 @tvb_get_uint8(ptr noundef %22, i32 noundef %23)
  %25 = zext i8 %24 to i32
  %26 = mul i32 %25, 2
  store i32 %26, ptr %15, align 4
  %27 = load i32, ptr %13, align 4
  %28 = load i32, ptr %15, align 4
  %29 = add i32 %28, 1
  %30 = icmp slt i32 %27, %29
  br i1 %30, label %31, label %36

31:                                               ; preds = %6
  %32 = load ptr, ptr %8, align 8
  %33 = load ptr, ptr %10, align 8
  %34 = call ptr @expert_add_info(ptr noundef %32, ptr noundef %33, ptr noundef @ei_mal_svalidator_coordination_conn_inst)
  %35 = load i32, ptr %13, align 4
  store i32 %35, ptr %7, align 4
  store i32 1, ptr %16, align 4
  br label %56

36:                                               ; preds = %6
  store i32 0, ptr %14, align 4
  br label %37

37:                                               ; preds = %50, %36
  %38 = load i32, ptr %14, align 4
  %39 = load i32, ptr %15, align 4
  %40 = icmp slt i32 %38, %39
  br i1 %40, label %41, label %53

41:                                               ; preds = %37
  %42 = load ptr, ptr %9, align 8
  %43 = load i32, ptr @hf_cip_svalidator_coordination_conn_inst_item, align 4
  %44 = load ptr, ptr %11, align 8
  %45 = load i32, ptr %12, align 4
  %46 = add i32 %45, 1
  %47 = load i32, ptr %14, align 4
  %48 = add i32 %46, %47
  %49 = call ptr @proto_tree_add_item(ptr noundef %42, i32 noundef %43, ptr noundef %44, i32 noundef %48, i32 noundef 2, i32 noundef -2147483648)
  br label %50

50:                                               ; preds = %41
  %51 = load i32, ptr %14, align 4
  %52 = add i32 %51, 2
  store i32 %52, ptr %14, align 4
  br label %37, !llvm.loop !11

53:                                               ; preds = %37
  %54 = load i32, ptr %15, align 4
  %55 = add i32 %54, 1
  store i32 %55, ptr %7, align 4
  store i32 1, ptr %16, align 4
  br label %56

56:                                               ; preds = %53, %31
  call void @llvm.lifetime.end.p0(i64 4, ptr %15) #11
  call void @llvm.lifetime.end.p0(i64 4, ptr %14) #11
  %57 = load i32, ptr %7, align 4
  ret i32 %57
}