; Function Attrs: null_pointer_is_valid sspstrong uwtable
define internal range(i32 -2147483648, 512) i32 @dissect_s_validator_coordination_conn_inst(ptr noundef %0, ptr noundef %1, ptr noundef %2, ptr noundef %3, i32 noundef %4, i32 noundef %5) #2 {
  %7 = load i32, ptr @hf_cip_svalidator_coordination_conn_inst_size, align 4
  %8 = tail call ptr @proto_tree_add_item(ptr noundef %1, i32 noundef %7, ptr noundef %3, i32 noundef %4, i32 noundef 1, i32 noundef -2147483648)
  %9 = tail call zeroext i8 @tvb_get_uint8(ptr noundef %3, i32 noundef %4)
  %10 = zext i8 %9 to i32
  %11 = shl nuw nsw i32 %10, 1
  %12 = or disjoint i32 %11, 1
  %.not = icmp sgt i32 %5, %11
  br i1 %.not, label %.preheader, label %14

.preheader:                                       ; preds = %6
  %.not22 = icmp eq i8 %9, 0
  br i1 %.not22, label %.loopexit, label %.lr.ph

.lr.ph:                                           ; preds = %.preheader
  %13 = add i32 %4, 1
  br label %16

14:                                               ; preds = %6
  %15 = tail call ptr @expert_add_info(ptr noundef %0, ptr noundef %2, ptr noundef nonnull @ei_mal_svalidator_coordination_conn_inst)
  br label %.loopexit

16:                                               ; preds = %.lr.ph, %16
  %.01821 = phi i32 [ 0, %.lr.ph ], [ %20, %16 ]
  %17 = load i32, ptr @hf_cip_svalidator_coordination_conn_inst_item, align 4
  %18 = add i32 %13, %.01821
  %19 = tail call ptr @proto_tree_add_item(ptr noundef %1, i32 noundef %17, ptr noundef %3, i32 noundef %18, i32 noundef 2, i32 noundef -2147483648)
  %20 = add nuw nsw i32 %.01821, 2
  %21 = icmp samesign ult i32 %20, %11
  br i1 %21, label %16, label %.loopexit, !llvm.loop !11

.loopexit:                                        ; preds = %16, %.preheader, %14
  %.0 = phi i32 [ %5, %14 ], [ %12, %.preheader ], [ %12, %16 ]
  ret i32 %.0
}